target datalayout = "e-m:e-p270:32:32-p271:32:32-p272:64:64-i64:64-i128:128-f80:128-n8:16:32:64-S128"
target triple = "x86_64-pc-linux-gnu"

%struct.H5D_chk_idx_info_t = type { ptr, ptr, ptr, ptr }
%struct.H5O_pline_t = type { %struct.H5O_shared_t, i32, i64, i64, ptr }
%struct.H5O_shared_t = type { i32, ptr, i32, %union.anon }
%union.anon = type { %struct.H5O_mesg_loc_t }
%struct.H5O_mesg_loc_t = type { i32, i64 }
%struct.H5O_layout_chunk_t = type { i32, i8, i32, [33 x i32], i32, i32, i64, i64, [33 x i64], [33 x i64], [33 x i64], [33 x i64], %union.anon.0 }
%union.anon.0 = type { %struct.H5O_layout_chunk_earray_t }
%struct.H5O_layout_chunk_earray_t = type { %struct.anon.1, i32, [33 x i32], [33 x i64], [33 x i64] }
%struct.anon.1 = type { i8, i8, i8, i8, i8 }
%struct.H5O_storage_chunk_t = type { i32, i64, ptr, %union.anon.3 }
%union.anon.3 = type { %struct.H5O_storage_chunk_btree_t }
%struct.H5O_storage_chunk_btree_t = type { i64, ptr }
%struct.H5O_storage_chunk_single_filt_t = type { i32, i32 }
%struct.H5D_chunk_ud_t = type { %struct.H5D_chunk_common_ud_t, i32, %struct.H5F_block_t, i32, i8, i64 }
%struct.H5D_chunk_common_ud_t = type { ptr, ptr, ptr }
%struct.H5F_block_t = type { i64, i64 }
%struct.H5D_t = type { %struct.H5O_loc_t, %struct.H5G_name_t, ptr }
%struct.H5O_loc_t = type { ptr, i64, i8 }
%struct.H5G_name_t = type { ptr, ptr, i32 }
%struct.H5D_shared_t = type { i64, i8, i64, ptr, ptr, i64, i64, %struct.H5D_dcpl_cache_t, %struct.H5O_layout_t, i8, i32, [32 x i64], [32 x i64], [32 x i64], %struct.anon.6, %struct.H5D_append_flush_t, ptr, ptr }
%struct.H5D_dcpl_cache_t = type { %struct.H5O_fill_t, %struct.H5O_pline_t, %struct.H5O_efl_t }
%struct.H5O_fill_t = type { %struct.H5O_shared_t, i32, ptr, i64, ptr, i32, i32, i8 }
%struct.H5O_efl_t = type { i64, i64, i64, ptr }
%struct.H5O_layout_t = type { i32, i32, ptr, %union.anon.4, %struct.H5O_storage_t }
%union.anon.4 = type { %struct.H5O_layout_chunk_t }
%struct.H5O_storage_t = type { i32, %union.anon.5 }
%union.anon.5 = type { %struct.H5O_storage_virtual_t }
%struct.H5O_storage_virtual_t = type { %struct.H5HG_t, i64, ptr, i64, [32 x i64], i32, i64, i64, i64, i8 }
%struct.H5HG_t = type { i64, i64 }
%struct.anon.6 = type { %struct.H5D_rdcdc_t, %struct.H5D_rdcc_t }
%struct.H5D_rdcdc_t = type { ptr, i64, i64, i64, i8 }
%struct.H5D_rdcc_t = type { %struct.anon.7, i64, i64, double, ptr, ptr, ptr, i64, i32, %struct.H5D_chunk_cached_t, ptr, ptr, ptr, ptr, [32 x i64], [32 x i64], [32 x i32] }
%struct.anon.7 = type { i32, i32, i32, i32 }
%struct.H5D_chunk_cached_t = type { i8, [33 x i64], i64, i32, i64, i32 }
%struct.H5D_append_flush_t = type { i32, [32 x i64], ptr, ptr }

@H5D_init_g = external global i8, align 1
@H5_libterm_g = external global i8, align 1
@.str = private unnamed_addr constant [103 x i8] c"generated/home/dtcxzyw/WorkSpace/Projects/compilers/llvm-opt-benchmark/bench/hdf5/hdf5/src/H5Dsingle.c\00", align 1
@__func__.H5D__single_idx_insert = private unnamed_addr constant [23 x i8] c"H5D__single_idx_insert\00", align 1
@H5E_DATASET_g = external global i64, align 8
@H5E_CANTSET_g = external global i64, align 8
@.str.1 = private unnamed_addr constant [31 x i8] c"unable to mark layout as dirty\00", align 1

; Function Attrs: nounwind uwtable
define internal i32 @H5D__single_idx_insert(ptr noundef %0, ptr noundef %1, ptr noundef %2) #0 {
  %4 = alloca ptr, align 8
  %5 = alloca ptr, align 8
  %6 = alloca ptr, align 8
  %7 = alloca i32, align 4
  %8 = alloca i8, align 1
  store ptr %0, ptr %4, align 8, !tbaa !3
  store ptr %1, ptr %5, align 8, !tbaa !38
  store ptr %2, ptr %6, align 8, !tbaa !40
  call void @llvm.lifetime.start.p0(i64 4, ptr %7) #6
  store i32 0, ptr %7, align 4, !tbaa !42
  call void @llvm.lifetime.start.p0(i64 1, ptr %8) #6
  store i8 0, ptr %8, align 1, !tbaa !12
  %9 = load i8, ptr @H5D_init_g, align 1, !tbaa !12, !range !14, !noundef !15
  %10 = trunc i8 %9 to i1
  br i1 %10, label %15, label %11

11:                                               ; preds = %3
  %12 = load i8, ptr @H5_libterm_g, align 1, !tbaa !12, !range !14, !noundef !15
  %13 = trunc i8 %12 to i1
  %14 = xor i1 %13, true
  br label %15

15:                                               ; preds = %11, %3
  %16 = phi i1 [ true, %3 ], [ %14, %11 ]
  %17 = xor i1 %16, true
  %18 = xor i1 %17, true
  %19 = zext i1 %18 to i32
  %20 = sext i32 %19 to i64
  %21 = call i64 @llvm.expect.i64(i64 %20, i64 1)
  %22 = icmp ne i64 %21, 0
  br i1 %22, label %23, label %106

23:                                               ; preds = %15
  %24 = load ptr, ptr %5, align 8, !tbaa !38
  %25 = getelementptr inbounds nuw %struct.H5D_chunk_ud_t, ptr %24, i32 0, i32 2
  %26 = getelementptr inbounds nuw %struct.H5F_block_t, ptr %25, i32 0, i32 0
  %27 = load i64, ptr %26, align 8, !tbaa !43
  %28 = load ptr, ptr %4, align 8, !tbaa !3
  %29 = getelementptr inbounds nuw %struct.H5D_chk_idx_info_t, ptr %28, i32 0, i32 3
  %30 = load ptr, ptr %29, align 8, !tbaa !30
  %31 = getelementptr inbounds nuw %struct.H5O_storage_chunk_t, ptr %30, i32 0, i32 1
  store i64 %27, ptr %31, align 8, !tbaa !31
  %32 = load ptr, ptr %4, align 8, !tbaa !3
  %33 = getelementptr inbounds nuw %struct.H5D_chk_idx_info_t, ptr %32, i32 0, i32 1
  %34 = load ptr, ptr %33, align 8, !tbaa !16
  %35 = getelementptr inbounds nuw %struct.H5O_pline_t, ptr %34, i32 0, i32 3
  %36 = load i64, ptr %35, align 8, !tbaa !22
  %37 = icmp ugt i64 %36, 0
  br i1 %37, label %38, label %60

38:                                               ; preds = %23
  br label %39

39:                                               ; preds = %38
  %40 = load ptr, ptr %5, align 8, !tbaa !38
  %41 = getelementptr inbounds nuw %struct.H5D_chunk_ud_t, ptr %40, i32 0, i32 2
  %42 = getelementptr inbounds nuw %struct.H5F_block_t, ptr %41, i32 0, i32 1
  %43 = load i64, ptr %42, align 8, !tbaa !48
  %44 = trunc i64 %43 to i32
  %45 = load ptr, ptr %4, align 8, !tbaa !3
  %46 = getelementptr inbounds nuw %struct.H5D_chk_idx_info_t, ptr %45, i32 0, i32 3
  %47 = load ptr, ptr %46, align 8, !tbaa !30
  %48 = getelementptr inbounds nuw %struct.H5O_storage_chunk_t, ptr %47, i32 0, i32 3
  %49 = getelementptr inbounds nuw %struct.H5O_storage_chunk_single_filt_t, ptr %48, i32 0, i32 0
  store i32 %44, ptr %49, align 8, !tbaa !34
  br label %50

50:                                               ; preds = %39
  br label %51

51:                                               ; preds = %50
  %52 = load ptr, ptr %5, align 8, !tbaa !38
  %53 = getelementptr inbounds nuw %struct.H5D_chunk_ud_t, ptr %52, i32 0, i32 3
  %54 = load i32, ptr %53, align 8, !tbaa !49
  %55 = load ptr, ptr %4, align 8, !tbaa !3
  %56 = getelementptr inbounds nuw %struct.H5D_chk_idx_info_t, ptr %55, i32 0, i32 3
  %57 = load ptr, ptr %56, align 8, !tbaa !30
  %58 = getelementptr inbounds nuw %struct.H5O_storage_chunk_t, ptr %57, i32 0, i32 3
  %59 = getelementptr inbounds nuw %struct.H5O_storage_chunk_single_filt_t, ptr %58, i32 0, i32 1
  store i32 %54, ptr %59, align 4, !tbaa !34
  br label %60

60:                                               ; preds = %51, %23
  %61 = load ptr, ptr %6, align 8, !tbaa !40
  %62 = icmp ne ptr %61, null
  br i1 %62, label %63, label %104

63:                                               ; preds = %60
  %64 = load ptr, ptr %6, align 8, !tbaa !40
  %65 = getelementptr inbounds nuw %struct.H5D_t, ptr %64, i32 0, i32 2
  %66 = load ptr, ptr %65, align 8, !tbaa !50
  %67 = getelementptr inbounds nuw %struct.H5D_shared_t, ptr %66, i32 0, i32 7
  %68 = getelementptr inbounds nuw %struct.H5D_dcpl_cache_t, ptr %67, i32 0, i32 0
  %69 = getelementptr inbounds nuw %struct.H5O_fill_t, ptr %68, i32 0, i32 5
  %70 = load i32, ptr %69, align 8, !tbaa !56
  %71 = icmp ne i32 %70, 1
  br i1 %71, label %79, label %72

72:                                               ; preds = %63
  %73 = load ptr, ptr %4, align 8, !tbaa !3
  %74 = getelementptr inbounds nuw %struct.H5D_chk_idx_info_t, ptr %73, i32 0, i32 1
  %75 = load ptr, ptr %74, align 8, !tbaa !16
  %76 = getelementptr inbounds nuw %struct.H5O_pline_t, ptr %75, i32 0, i32 3
  %77 = load i64, ptr %76, align 8, !tbaa !22
  %78 = icmp ugt i64 %77, 0
  br i1 %78, label %79, label %103

79:                                               ; preds = %72, %63
  %80 = load ptr, ptr %6, align 8, !tbaa !40
  %81 = call i32 @H5D__mark(ptr noundef %80, i32 noundef 2)
  %82 = icmp slt i32 %81, 0
  br i1 %82, label %83, label %102

83:                                               ; preds = %79
  br label %84

84:                                               ; preds = %83
  br label %85

85:                                               ; preds = %84
  br label %86

86:                                               ; preds = %85
  %87 = load i64, ptr @H5E_DATASET_g, align 8, !tbaa !10
  %88 = load i64, ptr @H5E_CANTSET_g, align 8, !tbaa !10
  %89 = call i32 (ptr, ptr, i32, i64, i64, ptr, ...) @H5E_printf_stack(ptr noundef @.str, ptr noundef @__func__.H5D__single_idx_insert, i32 noundef 295, i64 noundef %87, i64 noundef %88, ptr noundef @.str.1)
  br label %90

90:                                               ; preds = %86
  br label %91

91:                                               ; preds = %90
  store i8 1, ptr %8, align 1, !tbaa !12
  %92 = load i8, ptr %8, align 1, !tbaa !12, !range !14, !noundef !15
  %93 = trunc i8 %92 to i1
  %94 = zext i1 %93 to i8
  store i8 %94, ptr %8, align 1, !tbaa !12
  br label %95

95:                                               ; preds = %91
  br label %96

96:                                               ; preds = %95
  br label %97

97:                                               ; preds = %96
  store i32 -1, ptr %7, align 4, !tbaa !42
  br label %105

98:                                               ; No predecessors!
  br label %99

99:                                               ; preds = %98
  br label %100

100:                                              ; preds = %99
  br label %101

101:                                              ; preds = %100
  br label %102

102:                                              ; preds = %101, %79
  br label %103

103:                                              ; preds = %102, %72
  br label %104

104:                                              ; preds = %103, %60
  br label %105

105:                                              ; preds = %104, %97
  br label %106

106:                                              ; preds = %105, %15
  %107 = load i32, ptr %7, align 4, !tbaa !42
  call void @llvm.lifetime.end.p0(i64 1, ptr %8) #6
  call void @llvm.lifetime.end.p0(i64 4, ptr %7) #6
  ret i32 %107
}