; Function Attrs: nounwind uwtable
define internal range(i32 -1, 1) i32 @H5D__single_idx_insert(ptr noundef readonly captures(none) %0, ptr noundef readonly captures(none) %1, ptr noundef %2) #4 {
  %4 = load i8, ptr @H5D_init_g, align 1, !tbaa !3, !range !7, !noundef !8
  %5 = trunc nuw i8 %4 to i1
  %6 = load i8, ptr @H5_libterm_g, align 1, !range !7
  %7 = trunc nuw i8 %6 to i1
  %8 = xor i1 %7, true
  %9 = select i1 %5, i1 true, i1 %8
  br i1 %9, label %10, label %46, !prof !9

10:                                               ; preds = %3
  %11 = getelementptr inbounds nuw i8, ptr %1, i64 32
  %12 = load i64, ptr %11, align 8, !tbaa !31
  %13 = getelementptr inbounds nuw i8, ptr %0, i64 24
  %14 = load ptr, ptr %13, align 8, !tbaa !26
  %15 = getelementptr inbounds nuw i8, ptr %14, i64 8
  store i64 %12, ptr %15, align 8, !tbaa !27
  %16 = getelementptr inbounds nuw i8, ptr %0, i64 8
  %17 = load ptr, ptr %16, align 8, !tbaa !10
  %18 = getelementptr inbounds nuw i8, ptr %17, i64 56
  %19 = load i64, ptr %18, align 8, !tbaa !17
  %.not = icmp eq i64 %19, 0
  br i1 %.not, label %29, label %20

20:                                               ; preds = %10
  %21 = getelementptr inbounds nuw i8, ptr %1, i64 40
  %22 = load i64, ptr %21, align 8, !tbaa !36
  %23 = trunc i64 %22 to i32
  %24 = getelementptr inbounds nuw i8, ptr %14, i64 24
  store i32 %23, ptr %24, align 8, !tbaa !30
  %25 = getelementptr inbounds nuw i8, ptr %1, i64 48
  %26 = load i32, ptr %25, align 8, !tbaa !37
  %27 = load ptr, ptr %13, align 8, !tbaa !26
  %28 = getelementptr inbounds nuw i8, ptr %27, i64 28
  store i32 %26, ptr %28, align 4, !tbaa !30
  br label %29

29:                                               ; preds = %20, %10
  %.not13 = icmp eq ptr %2, null
  br i1 %.not13, label %46, label %30

30:                                               ; preds = %29
  %31 = getelementptr inbounds nuw i8, ptr %2, i64 48
  %32 = load ptr, ptr %31, align 8, !tbaa !38
  %33 = getelementptr inbounds nuw i8, ptr %32, i64 128
  %34 = load i32, ptr %33, align 8, !tbaa !44
  %.not14 = icmp eq i32 %34, 1
  br i1 %.not14, label %35, label %39

35:                                               ; preds = %30
  %36 = load ptr, ptr %16, align 8, !tbaa !10
  %37 = getelementptr inbounds nuw i8, ptr %36, i64 56
  %38 = load i64, ptr %37, align 8, !tbaa !17
  %.not15 = icmp eq i64 %38, 0
  br i1 %.not15, label %46, label %39

39:                                               ; preds = %35, %30
  %40 = tail call i32 @H5D__mark(ptr noundef nonnull %2, i32 noundef 2) #11
  %41 = icmp slt i32 %40, 0
  br i1 %41, label %42, label %46

42:                                               ; preds = %39
  %43 = load i64, ptr @H5E_DATASET_g, align 8, !tbaa !67
  %44 = load i64, ptr @H5E_CANTSET_g, align 8, !tbaa !67
  %45 = tail call i32 (ptr, ptr, i32, i64, i64, ptr, ...) @H5E_printf_stack(ptr noundef nonnull @.str, ptr noundef nonnull @__func__.H5D__single_idx_insert, i32 noundef 295, i64 noundef %43, i64 noundef %44, ptr noundef nonnull @.str.1) #11
  br label %46

46:                                               ; preds = %42, %35, %39, %29, %3
  %.0 = phi i32 [ -1, %42 ], [ 0, %39 ], [ 0, %35 ], [ 0, %29 ], [ 0, %3 ]
  ret i32 %.0
}